target datalayout = "e-m:e-p270:32:32-p271:32:32-p272:64:64-i64:64-i128:128-f80:128-n8:16:32:64-S128"
target triple = "x86_64-pc-linux-gnu"

%struct.AVRational = type { i32, i32 }
%struct.AVBSFContext = type { ptr, ptr, ptr, ptr, ptr, %struct.AVRational, %struct.AVRational }
%struct.AVCodecParameters = type { i32, i32, i32, ptr, i32, ptr, i32, i32, i64, i32, i32, i32, i32, i32, i32, %struct.AVRational, %struct.AVRational, i32, i32, i32, i32, i32, i32, i32, %struct.AVChannelLayout, i32, i32, i32, i32, i32, i32 }
%struct.AVChannelLayout = type { i32, i32, %union.anon.0, ptr }
%union.anon.0 = type { i64 }
%struct.PCMContext = type { ptr, i32, i32, %struct.AVRational, ptr, ptr, i32, i64 }

; Function Attrs: alwaysinline nounwind uwtable
define internal i64 @av_inv_q(i64 %0) #4 {
  %2 = alloca %struct.AVRational, align 4
  %3 = alloca %struct.AVRational, align 4
  store i64 %0, ptr %3, align 4
  %4 = getelementptr inbounds nuw %struct.AVRational, ptr %2, i32 0, i32 0
  %5 = getelementptr inbounds nuw %struct.AVRational, ptr %3, i32 0, i32 1
  %6 = load i32, ptr %5, align 4, !tbaa !47
  store i32 %6, ptr %4, align 4, !tbaa !46
  %7 = getelementptr inbounds nuw %struct.AVRational, ptr %2, i32 0, i32 1
  %8 = getelementptr inbounds nuw %struct.AVRational, ptr %3, i32 0, i32 0
  %9 = load i32, ptr %8, align 4, !tbaa !46
  store i32 %9, ptr %7, align 4, !tbaa !47
  %10 = load i64, ptr %2, align 4
  ret i64 %10
}

; Function Attrs: inlinehint nounwind uwtable
define internal i64 @av_make_q(i32 noundef %0, i32 noundef %1) #3 {
  %3 = alloca %struct.AVRational, align 4
  %4 = alloca i32, align 4
  %5 = alloca i32, align 4
  store i32 %0, ptr %4, align 4, !tbaa !27
  store i32 %1, ptr %5, align 4, !tbaa !27
  %6 = getelementptr inbounds nuw %struct.AVRational, ptr %3, i32 0, i32 0
  %7 = load i32, ptr %4, align 4, !tbaa !27
  store i32 %7, ptr %6, align 4, !tbaa !46
  %8 = getelementptr inbounds nuw %struct.AVRational, ptr %3, i32 0, i32 1
  %9 = load i32, ptr %5, align 4, !tbaa !27
  store i32 %9, ptr %8, align 4, !tbaa !47
  %10 = load i64, ptr %3, align 4
  ret i64 %10
}

; Function Attrs: nounwind uwtable
define internal i32 @init(ptr noundef %0) #0 {
  %2 = alloca i32, align 4
  %3 = alloca ptr, align 8
  %4 = alloca ptr, align 8
  %5 = alloca %struct.AVRational, align 4
  %6 = alloca i64, align 8
  %7 = alloca i32, align 4
  %8 = alloca %struct.AVRational, align 4
  store ptr %0, ptr %3, align 8, !tbaa !4
  call void @llvm.lifetime.start.p0(i64 8, ptr %4) #9
  %9 = load ptr, ptr %3, align 8, !tbaa !4
  %10 = getelementptr inbounds nuw %struct.AVBSFContext, ptr %9, i32 0, i32 2
  %11 = load ptr, ptr %10, align 8, !tbaa !9
  store ptr %11, ptr %4, align 8, !tbaa !16
  call void @llvm.lifetime.start.p0(i64 8, ptr %5) #9
  %12 = load ptr, ptr %3, align 8, !tbaa !4
  %13 = getelementptr inbounds nuw %struct.AVBSFContext, ptr %12, i32 0, i32 3
  %14 = load ptr, ptr %13, align 8, !tbaa !18
  %15 = getelementptr inbounds nuw %struct.AVCodecParameters, ptr %14, i32 0, i32 25
  %16 = load i32, ptr %15, align 8, !tbaa !19
  %17 = call i64 @av_make_q(i32 noundef %16, i32 noundef 1)
  store i64 %17, ptr %5, align 4
  call void @llvm.lifetime.start.p0(i64 8, ptr %6) #9
  %18 = load ptr, ptr %3, align 8, !tbaa !4
  %19 = getelementptr inbounds nuw %struct.AVBSFContext, ptr %18, i32 0, i32 3
  %20 = load ptr, ptr %19, align 8, !tbaa !18
  %21 = getelementptr inbounds nuw %struct.AVCodecParameters, ptr %20, i32 0, i32 24
  %22 = getelementptr inbounds nuw %struct.AVChannelLayout, ptr %21, i32 0, i32 1
  %23 = load i32, ptr %22, align 4, !tbaa !25
  %24 = icmp sle i32 %23, 0
  br i1 %24, label %32, label %25

25:                                               ; preds = %1
  %26 = load ptr, ptr %3, align 8, !tbaa !4
  %27 = getelementptr inbounds nuw %struct.AVBSFContext, ptr %26, i32 0, i32 3
  %28 = load ptr, ptr %27, align 8, !tbaa !18
  %29 = getelementptr inbounds nuw %struct.AVCodecParameters, ptr %28, i32 0, i32 25
  %30 = load i32, ptr %29, align 8, !tbaa !19
  %31 = icmp sle i32 %30, 0
  br i1 %31, label %32, label %33

32:                                               ; preds = %25, %1
  store i32 -22, ptr %2, align 4
  store i32 1, ptr %7, align 4
  br label %101

33:                                               ; preds = %25
  %34 = load ptr, ptr %3, align 8, !tbaa !4
  %35 = getelementptr inbounds nuw %struct.AVBSFContext, ptr %34, i32 0, i32 6
  call void @llvm.lifetime.start.p0(i64 8, ptr %8) #9
  %36 = load i64, ptr %5, align 4
  %37 = call i64 @av_inv_q(i64 %36)
  store i64 %37, ptr %8, align 4
  call void @llvm.memcpy.p0.p0.i64(ptr align 8 %35, ptr align 4 %8, i64 8, i1 false), !tbaa.struct !26
  call void @llvm.lifetime.end.p0(i64 8, ptr %8) #9
  %38 = load ptr, ptr %3, align 8, !tbaa !4
  %39 = getelementptr inbounds nuw %struct.AVBSFContext, ptr %38, i32 0, i32 3
  %40 = load ptr, ptr %39, align 8, !tbaa !18
  %41 = getelementptr inbounds nuw %struct.AVCodecParameters, ptr %40, i32 0, i32 24
  %42 = getelementptr inbounds nuw %struct.AVChannelLayout, ptr %41, i32 0, i32 1
  %43 = load i32, ptr %42, align 4, !tbaa !25
  %44 = load ptr, ptr %3, align 8, !tbaa !4
  %45 = getelementptr inbounds nuw %struct.AVBSFContext, ptr %44, i32 0, i32 3
  %46 = load ptr, ptr %45, align 8, !tbaa !18
  %47 = getelementptr inbounds nuw %struct.AVCodecParameters, ptr %46, i32 0, i32 1
  %48 = load i32, ptr %47, align 4, !tbaa !28
  %49 = call i32 @av_get_bits_per_sample(i32 noundef %48)
  %50 = mul nsw i32 %43, %49
  %51 = sdiv i32 %50, 8
  %52 = load ptr, ptr %4, align 8, !tbaa !16
  %53 = getelementptr inbounds nuw %struct.PCMContext, ptr %52, i32 0, i32 6
  store i32 %51, ptr %53, align 8, !tbaa !29
  %54 = load ptr, ptr %4, align 8, !tbaa !16
  %55 = getelementptr inbounds nuw %struct.PCMContext, ptr %54, i32 0, i32 3
  %56 = getelementptr inbounds nuw %struct.AVRational, ptr %55, i32 0, i32 0
  %57 = load i32, ptr %56, align 8, !tbaa !32
  %58 = icmp ne i32 %57, 0
  br i1 %58, label %59, label %65

59:                                               ; preds = %33
  %60 = load ptr, ptr %4, align 8, !tbaa !16
  %61 = getelementptr inbounds nuw %struct.PCMContext, ptr %60, i32 0, i32 3
  %62 = load i64, ptr %5, align 4
  %63 = load i64, ptr %61, align 8
  %64 = call i64 @av_rescale_q_rnd(i64 noundef 1, i64 %62, i64 %63, i32 noundef 2) #10
  store i64 %64, ptr %6, align 8, !tbaa !33
  br label %70

65:                                               ; preds = %33
  %66 = load ptr, ptr %4, align 8, !tbaa !16
  %67 = getelementptr inbounds nuw %struct.PCMContext, ptr %66, i32 0, i32 1
  %68 = load i32, ptr %67, align 8, !tbaa !34
  %69 = sext i32 %68 to i64
  store i64 %69, ptr %6, align 8, !tbaa !33
  br label %70

70:                                               ; preds = %65, %59
  %71 = load i64, ptr %6, align 8, !tbaa !33
  %72 = icmp sle i64 %71, 0
  br i1 %72, label %82, label %73

73:                                               ; preds = %70
  %74 = load i64, ptr %6, align 8, !tbaa !33
  %75 = load ptr, ptr %4, align 8, !tbaa !16
  %76 = getelementptr inbounds nuw %struct.PCMContext, ptr %75, i32 0, i32 6
  %77 = load i32, ptr %76, align 8, !tbaa !29
  %78 = sdiv i32 2147483647, %77
  %79 = sub nsw i32 %78, 1
  %80 = sext i32 %79 to i64
  %81 = icmp sgt i64 %74, %80
  br i1 %81, label %82, label %83

82:                                               ; preds = %73, %70
  store i32 -22, ptr %2, align 4
  store i32 1, ptr %7, align 4
  br label %101

83:                                               ; preds = %73
  %84 = call ptr @av_packet_alloc()
  %85 = load ptr, ptr %4, align 8, !tbaa !16
  %86 = getelementptr inbounds nuw %struct.PCMContext, ptr %85, i32 0, i32 4
  store ptr %84, ptr %86, align 8, !tbaa !35
  %87 = call ptr @av_packet_alloc()
  %88 = load ptr, ptr %4, align 8, !tbaa !16
  %89 = getelementptr inbounds nuw %struct.PCMContext, ptr %88, i32 0, i32 5
  store ptr %87, ptr %89, align 8, !tbaa !36
  %90 = load ptr, ptr %4, align 8, !tbaa !16
  %91 = getelementptr inbounds nuw %struct.PCMContext, ptr %90, i32 0, i32 4
  %92 = load ptr, ptr %91, align 8, !tbaa !35
  %93 = icmp ne ptr %92, null
  br i1 %93, label %94, label %99

94:                                               ; preds = %83
  %95 = load ptr, ptr %4, align 8, !tbaa !16
  %96 = getelementptr inbounds nuw %struct.PCMContext, ptr %95, i32 0, i32 5
  %97 = load ptr, ptr %96, align 8, !tbaa !36
  %98 = icmp ne ptr %97, null
  br i1 %98, label %100, label %99

99:                                               ; preds = %94, %83
  store i32 -12, ptr %2, align 4
  store i32 1, ptr %7, align 4
  br label %101

100:                                              ; preds = %94
  store i32 0, ptr %2, align 4
  store i32 1, ptr %7, align 4
  br label %101

101:                                              ; preds = %100, %99, %82, %32
  call void @llvm.lifetime.end.p0(i64 8, ptr %6) #9
  call void @llvm.lifetime.end.p0(i64 8, ptr %5) #9
  call void @llvm.lifetime.end.p0(i64 8, ptr %4) #9
  %102 = load i32, ptr %2, align 4
  ret i32 %102
}