; Function Attrs: nounwind uwtable
define internal range(i32 -22, 1) i32 @init(ptr noundef captures(none) %0) #0 {
  %2 = getelementptr inbounds nuw i8, ptr %0, i64 16
  %3 = load ptr, ptr %2, align 8, !tbaa !4
  %4 = getelementptr inbounds nuw i8, ptr %0, i64 24
  %5 = load ptr, ptr %4, align 8, !tbaa !14
  %6 = getelementptr inbounds nuw i8, ptr %5, i64 152
  %7 = load i32, ptr %6, align 8, !tbaa !15
  %.sroa.0.0.insert.ext.i = zext i32 %7 to i64
  %.sroa.0.0.insert.insert.i = or disjoint i64 %.sroa.0.0.insert.ext.i, 4294967296
  %8 = getelementptr inbounds nuw i8, ptr %5, i64 132
  %9 = load i32, ptr %8, align 4, !tbaa !21
  %10 = icmp slt i32 %9, 1
  %11 = icmp slt i32 %7, 1
  %or.cond23 = select i1 %10, i1 true, i1 %11
  br i1 %or.cond23, label %43, label %12

12:                                               ; preds = %1
  %13 = getelementptr inbounds nuw i8, ptr %0, i64 48
  %.sroa.22.0.insert.ext.i = shl nuw nsw i64 %.sroa.0.0.insert.ext.i, 32
  %.sroa.01.0.insert.insert.i = or disjoint i64 %.sroa.22.0.insert.ext.i, 1
  store i64 %.sroa.01.0.insert.insert.i, ptr %13, align 8
  %14 = load i32, ptr %8, align 4, !tbaa !21
  %15 = getelementptr inbounds nuw i8, ptr %5, i64 4
  %16 = load i32, ptr %15, align 4, !tbaa !22
  %17 = tail call i32 @av_get_bits_per_sample(i32 noundef %16) #7
  %18 = mul nsw i32 %17, %14
  %19 = sdiv i32 %18, 8
  %20 = getelementptr inbounds nuw i8, ptr %3, i64 40
  store i32 %19, ptr %20, align 8, !tbaa !23
  %21 = getelementptr inbounds nuw i8, ptr %3, i64 16
  %22 = load i32, ptr %21, align 8, !tbaa !26
  %.not = icmp eq i32 %22, 0
  br i1 %.not, label %26, label %23

23:                                               ; preds = %12
  %24 = load i64, ptr %21, align 8
  %25 = tail call i64 @av_rescale_q_rnd(i64 noundef 1, i64 %.sroa.0.0.insert.insert.i, i64 %24, i32 noundef 2) #8
  br label %30

26:                                               ; preds = %12
  %27 = getelementptr inbounds nuw i8, ptr %3, i64 8
  %28 = load i32, ptr %27, align 8, !tbaa !27
  %29 = sext i32 %28 to i64
  br label %30

30:                                               ; preds = %26, %23
  %.020 = phi i64 [ %25, %23 ], [ %29, %26 ]
  %31 = icmp slt i64 %.020, 1
  br i1 %31, label %43, label %32

32:                                               ; preds = %30
  %33 = sdiv i32 2147483647, %19
  %34 = add nsw i32 %33, -1
  %35 = sext i32 %34 to i64
  %36 = icmp sgt i64 %.020, %35
  br i1 %36, label %43, label %37

37:                                               ; preds = %32
  %38 = tail call ptr @av_packet_alloc() #7
  %39 = getelementptr inbounds nuw i8, ptr %3, i64 24
  store ptr %38, ptr %39, align 8, !tbaa !28
  %40 = tail call ptr @av_packet_alloc() #7
  %41 = getelementptr inbounds nuw i8, ptr %3, i64 32
  store ptr %40, ptr %41, align 8, !tbaa !29
  %42 = load ptr, ptr %39, align 8, !tbaa !28
  %.not21 = icmp eq ptr %42, null
  %.not22 = icmp eq ptr %40, null
  %or.cond = select i1 %.not21, i1 true, i1 %.not22
  %spec.select = select i1 %or.cond, i32 -12, i32 0
  br label %43

43:                                               ; preds = %37, %30, %32, %1
  %.0 = phi i32 [ -22, %1 ], [ -22, %32 ], [ -22, %30 ], [ %spec.select, %37 ]
  ret i32 %.0
}